; Function Attrs: nounwind uwtable
define hidden void @lxb_html_token_attr_delete(ptr nocapture noundef %0, ptr noundef %1, ptr noundef %2) local_unnamed_addr #0 {
  %4 = getelementptr inbounds i8, ptr %0, i64 48
  %5 = load ptr, ptr %4, align 8
  %6 = icmp eq ptr %5, %1
  br i1 %6, label %7, label %10

7:                                                ; preds = %3
  %8 = getelementptr inbounds i8, ptr %1, i64 56
  %9 = load ptr, ptr %8, align 8
  store ptr %9, ptr %4, align 8
  br label %10

10:                                               ; preds = %7, %3
  %11 = getelementptr inbounds i8, ptr %0, i64 56
  %12 = load ptr, ptr %11, align 8
  %13 = icmp eq ptr %12, %1
  %14 = getelementptr inbounds i8, ptr %1, i64 64
  %15 = load ptr, ptr %14, align 8
  br i1 %13, label %16, label %._crit_edge

16:                                               ; preds = %10
  store ptr %15, ptr %11, align 8
  br label %._crit_edge

._crit_edge:                                      ; preds = %10, %16
  %17 = getelementptr inbounds i8, ptr %1, i64 56
  %18 = load ptr, ptr %17, align 8
  %.not.i = icmp eq ptr %18, null
  br i1 %.not.i, label %._crit_edge.i, label %19

19:                                               ; preds = %._crit_edge
  %20 = getelementptr inbounds i8, ptr %18, i64 64
  store ptr %15, ptr %20, align 8
  br label %._crit_edge.i

._crit_edge.i:                                    ; preds = %19, %._crit_edge
  %.not18.i = icmp eq ptr %15, null
  br i1 %.not18.i, label %lxb_html_token_attr_remove.exit, label %21

21:                                               ; preds = %._crit_edge.i
  %22 = load ptr, ptr %17, align 8
  %23 = getelementptr inbounds i8, ptr %15, i64 56
  store ptr %22, ptr %23, align 8
  br label %lxb_html_token_attr_remove.exit

lxb_html_token_attr_remove.exit:                  ; preds = %._crit_edge.i, %21
  tail call void @llvm.memset.p0.i64(ptr noundef nonnull align 8 dereferenceable(16) %17, i8 0, i64 16, i1 false)
  %24 = tail call ptr @lxb_html_token_attr_destroy(ptr noundef nonnull %1, ptr noundef %2) #8
  ret void
}